; Function Attrs: nounwind uwtable
define internal i32 @filter_frame(ptr noundef readonly captures(none) %0, ptr noundef %1) #1 {
  %3 = alloca ptr, align 8
  %4 = alloca %struct.ThreadData, align 8
  store ptr %1, ptr %3, align 8, !tbaa !29
  %5 = getelementptr inbounds nuw i8, ptr %0, i64 16
  %6 = load ptr, ptr %5, align 8, !tbaa !31
  %7 = getelementptr inbounds nuw i8, ptr %6, i64 56
  %8 = load ptr, ptr %7, align 8, !tbaa !40
  %9 = load ptr, ptr %8, align 8, !tbaa !41
  %10 = getelementptr inbounds nuw i8, ptr %6, i64 72
  %11 = load ptr, ptr %10, align 8, !tbaa !4
  call void @llvm.lifetime.start.p0(i64 24, ptr nonnull %4) #8
  %12 = getelementptr inbounds nuw i8, ptr %9, i64 40
  %13 = load i32, ptr %12, align 8, !tbaa !43
  %14 = getelementptr inbounds nuw i8, ptr %9, i64 44
  %15 = load i32, ptr %14, align 4, !tbaa !44
  %16 = tail call ptr @ff_get_video_buffer(ptr noundef %9, i32 noundef %13, i32 noundef %15) #8
  %.not = icmp eq ptr %16, null
  br i1 %.not, label %17, label %18

17:                                               ; preds = %2
  call void @av_frame_free(ptr noundef nonnull %3) #8
  br label %34

18:                                               ; preds = %2
  %19 = tail call i32 @av_frame_copy_props(ptr noundef nonnull %16, ptr noundef %1) #8
  %20 = load i32, ptr %12, align 8, !tbaa !43
  %21 = getelementptr inbounds nuw i8, ptr %16, i64 104
  store i32 %20, ptr %21, align 8, !tbaa !45
  %22 = load i32, ptr %14, align 4, !tbaa !44
  %23 = getelementptr inbounds nuw i8, ptr %16, i64 108
  store i32 %22, ptr %23, align 4, !tbaa !51
  store ptr %1, ptr %4, align 8, !tbaa !52
  %24 = getelementptr inbounds nuw i8, ptr %4, i64 8
  store ptr %16, ptr %24, align 8, !tbaa !55
  %25 = getelementptr inbounds nuw i8, ptr %11, i64 24
  %26 = getelementptr inbounds nuw i8, ptr %4, i64 16
  store ptr %25, ptr %26, align 8, !tbaa !56
  %27 = getelementptr inbounds nuw i8, ptr %11, i64 16
  %28 = load ptr, ptr %27, align 8, !tbaa !28
  %29 = getelementptr inbounds nuw i8, ptr %0, i64 44
  %30 = load i32, ptr %29, align 4, !tbaa !44
  %31 = tail call i32 @ff_filter_get_nb_threads(ptr noundef nonnull %6) #9
  %. = tail call i32 @llvm.smin.i32(i32 %30, i32 %31)
  %32 = call i32 @ff_filter_execute(ptr noundef nonnull %6, ptr noundef %28, ptr noundef nonnull %4, ptr noundef null, i32 noundef %.) #8
  call void @av_frame_free(ptr noundef nonnull %3) #8
  %33 = call i32 @ff_filter_frame(ptr noundef nonnull %9, ptr noundef nonnull %16) #8
  br label %34

34:                                               ; preds = %18, %17
  %.0 = phi i32 [ %33, %18 ], [ -12, %17 ]
  call void @llvm.lifetime.end.p0(i64 24, ptr nonnull %4) #8
  ret i32 %.0
}